target datalayout = "e-m:e-p270:32:32-p271:32:32-p272:64:64-i64:64-i128:128-f80:128-n8:16:32:64-S128"
target triple = "x86_64-pc-linux-gnu"

@id_associated = internal global i64 0, align 8
@rb_eArgError = external global i64, align 8
@.str.31 = private unnamed_addr constant [22 x i8] c"no associated pointer\00", align 1

; Function Attrs: nounwind sspstrong uwtable
define internal i64 @str_associated(i64 noundef %0) #0 {
  %2 = alloca i64, align 8
  %3 = alloca i64, align 8
  store i64 %0, ptr %2, align 8, !tbaa !12
  call void @llvm.lifetime.start.p0(i64 8, ptr %3) #20
  %4 = load i64, ptr %2, align 8, !tbaa !12
  %5 = load i64, ptr @id_associated, align 8, !tbaa !12
  %6 = call i64 @rb_ivar_lookup(i64 noundef %4, i64 noundef %5, i64 noundef 0)
  store i64 %6, ptr %3, align 8, !tbaa !12
  %7 = load i64, ptr %3, align 8, !tbaa !12
  %8 = icmp ne i64 %7, 0
  br i1 %8, label %11, label %9

9:                                                ; preds = %1
  %10 = load i64, ptr @rb_eArgError, align 8, !tbaa !12
  call void (i64, ptr, ...) @rb_raise(i64 noundef %10, ptr noundef @.str.31) #23
  unreachable

11:                                               ; preds = %1
  %12 = load i64, ptr %3, align 8, !tbaa !12
  call void @llvm.lifetime.end.p0(i64 8, ptr %3) #20
  ret i64 %12
}