; Function Attrs: nounwind sspstrong uwtable
define internal fastcc range(i64 1, 0) i64 @str_associated(i64 noundef %0) unnamed_addr #0 {
  %2 = load i64, ptr @id_associated, align 8, !tbaa !7
  %3 = tail call i64 @rb_ivar_lookup(i64 noundef %0, i64 noundef %2, i64 noundef 0) #13
  %.not = icmp eq i64 %3, 0
  br i1 %.not, label %4, label %6

4:                                                ; preds = %1
  %5 = load i64, ptr @rb_eArgError, align 8, !tbaa !7
  tail call void (i64, ptr, ...) @rb_raise(i64 noundef %5, ptr noundef nonnull @.str.31) #14
  unreachable

6:                                                ; preds = %1
  ret i64 %3
}